; Function Attrs: nounwind uwtable
define dso_local range(i32 0, 2) i32 @cert_load(ptr noundef %0, ptr noundef %1) local_unnamed_addr #0 {
  %3 = tail call ptr @PEM_read_bio_X509(ptr noundef %0, ptr noundef null, ptr noundef null, ptr noundef null) #6
  %.not11 = icmp eq ptr %3, null
  br i1 %.not11, label %.loopexit, label %.lr.ph

4:                                                ; preds = %.lr.ph
  %5 = tail call ptr @PEM_read_bio_X509(ptr noundef %0, ptr noundef null, ptr noundef null, ptr noundef null) #6
  %.not = icmp eq ptr %5, null
  br i1 %.not, label %._crit_edge, label %.lr.ph, !llvm.loop !72

.lr.ph:                                           ; preds = %2, %4
  %6 = phi ptr [ %5, %4 ], [ %3, %2 ]
  %7 = tail call i32 @OPENSSL_sk_push(ptr noundef %1, ptr noundef nonnull %6) #6
  %.not8 = icmp eq i32 %7, 0
  br i1 %.not8, label %.loopexit, label %4, !llvm.loop !72

._crit_edge:                                      ; preds = %4
  tail call void @ERR_clear_error() #6
  br label %.loopexit

.loopexit:                                        ; preds = %.lr.ph, %2, %._crit_edge
  %.0 = phi i32 [ 1, %._crit_edge ], [ 0, %2 ], [ 0, %.lr.ph ]
  ret i32 %.0
}